target datalayout = "e-m:e-p270:32:32-p271:32:32-p272:64:64-i64:64-i128:128-f80:128-n8:16:32:64-S128"
target triple = "x86_64-pc-linux-gnu"

%struct._packet_info = type { ptr, ptr, i32, i32, %struct.nstime_t, %struct.nstime_t, %struct.nstime_t, i8, ptr, ptr, ptr, ptr, %struct._address, %struct._address, %struct._address, %struct._address, %struct._address, %struct._address, i32, ptr, i8, [3 x i8], %struct.anon.1, i32, i32, i32, i32, ptr, i8, ptr, ptr, i16, i16, i32, i32, i16, i32, i32, ptr, ptr, ptr, i8, i8, i16, i16, i16, i32, i16, i16, ptr, ptr, ptr, ptr, ptr, i32, i32 }
%struct.nstime_t = type { i64, i32 }
%struct._address = type { i32, i32, ptr, ptr }
%struct.anon.1 = type { i8, [3 x i8] }

@proto_pdcp_nr = hidden global i32 0, align 4
@ett_pdcp = internal global i32 0, align 4
@.str.188 = private unnamed_addr constant [8 x i8] c"PDCP-NR\00", align 1

; Function Attrs: null_pointer_is_valid sspstrong uwtable
define internal void @report_heur_error(ptr noundef %0, ptr noundef %1, ptr noundef %2, ptr noundef %3, i32 noundef %4, i32 noundef %5) #0 {
  %7 = alloca ptr, align 8
  %8 = alloca ptr, align 8
  %9 = alloca ptr, align 8
  %10 = alloca ptr, align 8
  %11 = alloca i32, align 4
  %12 = alloca i32, align 4
  %13 = alloca ptr, align 8
  %14 = alloca ptr, align 8
  store ptr %0, ptr %7, align 8
  store ptr %1, ptr %8, align 8
  store ptr %2, ptr %9, align 8
  store ptr %3, ptr %10, align 8
  store i32 %4, ptr %11, align 4
  store i32 %5, ptr %12, align 4
  call void @llvm.lifetime.start.p0(i64 8, ptr %13) #15
  call void @llvm.lifetime.start.p0(i64 8, ptr %14) #15
  %15 = load ptr, ptr %8, align 8
  %16 = getelementptr inbounds nuw %struct._packet_info, ptr %15, i32 0, i32 1
  %17 = load ptr, ptr %16, align 8
  call void @col_set_str(ptr noundef %17, i32 noundef 35, ptr noundef @.str.188)
  %18 = load ptr, ptr %8, align 8
  %19 = getelementptr inbounds nuw %struct._packet_info, ptr %18, i32 0, i32 1
  %20 = load ptr, ptr %19, align 8
  call void @col_clear(ptr noundef %20, i32 noundef 25)
  %21 = load ptr, ptr %7, align 8
  %22 = load i32, ptr @proto_pdcp_nr, align 4
  %23 = load ptr, ptr %10, align 8
  %24 = call ptr @proto_tree_add_item(ptr noundef %21, i32 noundef %22, ptr noundef %23, i32 noundef 0, i32 noundef -1, i32 noundef 0)
  store ptr %24, ptr %13, align 8
  %25 = load ptr, ptr %13, align 8
  %26 = load i32, ptr @ett_pdcp, align 4
  %27 = call ptr @proto_item_add_subtree(ptr noundef %25, i32 noundef %26)
  store ptr %27, ptr %14, align 8
  %28 = load ptr, ptr %14, align 8
  %29 = load ptr, ptr %8, align 8
  %30 = load ptr, ptr %9, align 8
  %31 = load ptr, ptr %10, align 8
  %32 = load i32, ptr %11, align 4
  %33 = load i32, ptr %12, align 4
  %34 = call ptr @proto_tree_add_expert(ptr noundef %28, ptr noundef %29, ptr noundef %30, ptr noundef %31, i32 noundef %32, i32 noundef %33)
  call void @llvm.lifetime.end.p0(i64 8, ptr %14) #15
  call void @llvm.lifetime.end.p0(i64 8, ptr %13) #15
  ret void
}